target datalayout = "e-m:e-p270:32:32-p271:32:32-p272:64:64-i64:64-i128:128-f80:128-n8:16:32:64-S128"
target triple = "x86_64-unknown-linux-gnu"

%struct.IntProperty = type { i32, i32, i32, ptr, ptr }

; Function Attrs: mustprogress uwtable
define i32 @u_getIntPropertyMaxValue_75(i32 noundef %which) #0 {
entry:
  %retval = alloca i32, align 4
  %which.addr = alloca i32, align 4
  %prop = alloca ptr, align 8
  store i32 %which, ptr %which.addr, align 4
  %0 = load i32, ptr %which.addr, align 4
  %cmp = icmp slt i32 %0, 4096
  br i1 %cmp, label %if.then, label %if.else

if.then:                                          ; preds = %entry
  %1 = load i32, ptr %which.addr, align 4
  %cmp1 = icmp sle i32 0, %1
  br i1 %cmp1, label %land.lhs.true, label %if.end

land.lhs.true:                                    ; preds = %if.then
  %2 = load i32, ptr %which.addr, align 4
  %cmp2 = icmp slt i32 %2, 75
  br i1 %cmp2, label %if.then3, label %if.end

if.then3:                                         ; preds = %land.lhs.true
  store i32 1, ptr %retval, align 4
  br label %return

if.end:                                           ; preds = %land.lhs.true, %if.then
  br label %if.end7

if.else:                                          ; preds = %entry
  %3 = load i32, ptr %which.addr, align 4
  %cmp4 = icmp slt i32 %3, 4121
  br i1 %cmp4, label %if.then5, label %if.end6

if.then5:                                         ; preds = %if.else
  %4 = load i32, ptr %which.addr, align 4
  %sub = sub nsw i32 %4, 4096
  %idxprom = sext i32 %sub to i64
  %arrayidx = getelementptr inbounds [25 x %struct.IntProperty], ptr @_ZL8intProps, i64 0, i64 %idxprom
  store ptr %arrayidx, ptr %prop, align 8
  %5 = load ptr, ptr %prop, align 8
  %getMaxValue = getelementptr inbounds %struct.IntProperty, ptr %5, i32 0, i32 4
  %6 = load ptr, ptr %getMaxValue, align 8
  %7 = load ptr, ptr %prop, align 8
  %8 = load i32, ptr %which.addr, align 4
  %call = call noundef i32 %6(ptr noundef nonnull align 8 dereferenceable(32) %7, i32 noundef %8)
  store i32 %call, ptr %retval, align 4
  br label %return

if.end6:                                          ; preds = %if.else
  br label %if.end7

if.end7:                                          ; preds = %if.end6, %if.end
  store i32 -1, ptr %retval, align 4
  br label %return

return:                                           ; preds = %if.end7, %if.then5, %if.then3
  %9 = load i32, ptr %retval, align 4
  ret i32 %9
}