; Function Attrs: mustprogress uwtable
define noundef i32 @u_getIntPropertyMaxValue_75(i32 noundef %which) local_unnamed_addr #0 {
entry:
  %cmp = icmp slt i32 %which, 4096
  br i1 %cmp, label %if.then, label %if.else

if.then:                                          ; preds = %entry
  %or.cond = icmp ult i32 %which, 75
  br i1 %or.cond, label %return, label %if.end7

if.else:                                          ; preds = %entry
  %cmp4 = icmp ult i32 %which, 4121
  br i1 %cmp4, label %if.then5, label %if.end7

if.then5:                                         ; preds = %if.else
  %sub = add nsw i32 %which, -4096
  %idxprom = zext nneg i32 %sub to i64
  %arrayidx = getelementptr inbounds [25 x %struct.IntProperty], ptr @_ZL8intProps, i64 0, i64 %idxprom
  %getMaxValue = getelementptr inbounds i8, ptr %arrayidx, i64 24
  %0 = load ptr, ptr %getMaxValue, align 8
  %call = tail call noundef i32 %0(ptr noundef nonnull align 8 dereferenceable(32) %arrayidx, i32 noundef %which)
  br label %return

if.end7:                                          ; preds = %if.else, %if.then
  br label %return

return:                                           ; preds = %if.then, %if.end7, %if.then5
  %retval.0 = phi i32 [ -1, %if.end7 ], [ %call, %if.then5 ], [ 1, %if.then ]
  ret i32 %retval.0
}